; Function Attrs: mustprogress nofree norecurse nosync nounwind willreturn memory(argmem: readwrite) uwtable
define noundef signext range(i8 0, 2) i8 @_ZNK6icu_775Edits11copyErrorToER10UErrorCode(ptr noundef nonnull readonly align 8 captures(none) dereferenceable(232) %0, ptr noundef nonnull align 4 captures(none) dereferenceable(4) %1) local_unnamed_addr #11 align 2 {
  %3 = load i32, ptr %1, align 4, !tbaa !13
  %4 = icmp slt i32 %3, 1
  br i1 %4, label %5, label %10

5:                                                ; preds = %2
  %6 = getelementptr inbounds nuw i8, ptr %0, i64 24
  %7 = load i32, ptr %6, align 8, !tbaa !18
  %8 = icmp sgt i32 %7, 0
  br i1 %8, label %9, label %10

9:                                                ; preds = %5
  store i32 %7, ptr %1, align 4, !tbaa !13
  br label %10

10:                                               ; preds = %5, %2, %9
  %.0 = phi i8 [ 1, %9 ], [ 1, %2 ], [ 0, %5 ]
  ret i8 %.0
}